; Function Attrs: mustprogress nofree norecurse nosync nounwind willreturn memory(argmem: write) uwtable
define dso_local void @_ZN4llvm6RegionC2EPNS_10BasicBlockES2_PNS_10RegionInfoEPNS_13DominatorTreeEPS0_(ptr noundef nonnull align 8 dereferenceable(112) initializes((0, 64), (72, 76), (80, 88)) %0, ptr noundef %1, ptr noundef %2, ptr noundef %3, ptr noundef %4, ptr noundef %5) unnamed_addr #9 align 2 {
  %7 = ptrtoint ptr %1 to i64
  %8 = or i64 %7, 4
  store i64 %8, ptr %0, align 8
  %9 = getelementptr inbounds nuw i8, ptr %0, i64 8
  store ptr %5, ptr %9, align 8
  %10 = getelementptr inbounds nuw i8, ptr %0, i64 16
  store ptr %3, ptr %10, align 8
  %11 = getelementptr inbounds nuw i8, ptr %0, i64 24
  store ptr %4, ptr %11, align 8
  %12 = getelementptr inbounds nuw i8, ptr %0, i64 32
  store ptr %2, ptr %12, align 8
  %13 = getelementptr inbounds nuw i8, ptr %0, i64 40
  tail call void @llvm.memset.p0.i64(ptr noundef nonnull align 8 dereferenceable(24) %13, i8 0, i64 24, i1 false)
  %14 = getelementptr inbounds nuw i8, ptr %0, i64 72
  store i32 0, ptr %14, align 8
  %15 = getelementptr inbounds nuw i8, ptr %0, i64 80
  store ptr null, ptr %15, align 8
  %16 = getelementptr inbounds nuw i8, ptr %0, i64 88
  store ptr %14, ptr %16, align 8
  %17 = getelementptr inbounds nuw i8, ptr %0, i64 96
  store ptr %14, ptr %17, align 8
  %18 = getelementptr inbounds nuw i8, ptr %0, i64 104
  store i64 0, ptr %18, align 8
  ret void
}